target datalayout = "e-m:e-p270:32:32-p271:32:32-p272:64:64-i64:64-i128:128-f80:128-n8:16:32:64-S128"
target triple = "x86_64-pc-linux-gnu"

@mt = internal global [624 x i64] zeroinitializer, align 16
@mti = internal global i32 625, align 4
@genrand_int32.mag01 = internal global [2 x i64] [i64 0, i64 2567483615], align 16

; Function Attrs: nounwind uwtable
define void @init_genrand(i64 noundef %0) #0 {
  %2 = alloca i64, align 8
  store i64 %0, ptr %2, align 8
  %3 = load i64, ptr %2, align 8
  %4 = and i64 %3, 4294967295
  store i64 %4, ptr @mt, align 16
  store i32 1, ptr @mti, align 4
  br label %5

5:                                                ; preds = %33, %1
  %6 = load i32, ptr @mti, align 4
  %7 = icmp slt i32 %6, 624
  br i1 %7, label %8, label %36

8:                                                ; preds = %5
  %9 = load i32, ptr @mti, align 4
  %10 = sub nsw i32 %9, 1
  %11 = sext i32 %10 to i64
  %12 = getelementptr inbounds [624 x i64], ptr @mt, i64 0, i64 %11
  %13 = load i64, ptr %12, align 8
  %14 = load i32, ptr @mti, align 4
  %15 = sub nsw i32 %14, 1
  %16 = sext i32 %15 to i64
  %17 = getelementptr inbounds [624 x i64], ptr @mt, i64 0, i64 %16
  %18 = load i64, ptr %17, align 8
  %19 = lshr i64 %18, 30
  %20 = xor i64 %13, %19
  %21 = mul i64 1812433253, %20
  %22 = load i32, ptr @mti, align 4
  %23 = sext i32 %22 to i64
  %24 = add i64 %21, %23
  %25 = load i32, ptr @mti, align 4
  %26 = sext i32 %25 to i64
  %27 = getelementptr inbounds [624 x i64], ptr @mt, i64 0, i64 %26
  store i64 %24, ptr %27, align 8
  %28 = load i32, ptr @mti, align 4
  %29 = sext i32 %28 to i64
  %30 = getelementptr inbounds [624 x i64], ptr @mt, i64 0, i64 %29
  %31 = load i64, ptr %30, align 8
  %32 = and i64 %31, 4294967295
  store i64 %32, ptr %30, align 8
  br label %33

33:                                               ; preds = %8
  %34 = load i32, ptr @mti, align 4
  %35 = add nsw i32 %34, 1
  store i32 %35, ptr @mti, align 4
  br label %5

36:                                               ; preds = %5
  ret void
}

; Function Attrs: nounwind uwtable
define i64 @genrand_int32() #0 {
  %1 = alloca i64, align 8
  %2 = alloca i32, align 4
  %3 = load i32, ptr @mti, align 4
  %4 = icmp sge i32 %3, 624
  br i1 %4, label %5, label %96

5:                                                ; preds = %0
  %6 = load i32, ptr @mti, align 4
  %7 = icmp eq i32 %6, 625
  br i1 %7, label %8, label %9

8:                                                ; preds = %5
  call void @init_genrand(i64 noundef 5489)
  br label %9

9:                                                ; preds = %8, %5
  store i32 0, ptr %2, align 4
  br label %10

10:                                               ; preds = %42, %9
  %11 = load i32, ptr %2, align 4
  %12 = icmp slt i32 %11, 227
  br i1 %12, label %13, label %45

13:                                               ; preds = %10
  %14 = load i32, ptr %2, align 4
  %15 = sext i32 %14 to i64
  %16 = getelementptr inbounds [624 x i64], ptr @mt, i64 0, i64 %15
  %17 = load i64, ptr %16, align 8
  %18 = and i64 %17, 2147483648
  %19 = load i32, ptr %2, align 4
  %20 = add nsw i32 %19, 1
  %21 = sext i32 %20 to i64
  %22 = getelementptr inbounds [624 x i64], ptr @mt, i64 0, i64 %21
  %23 = load i64, ptr %22, align 8
  %24 = and i64 %23, 2147483647
  %25 = or i64 %18, %24
  store i64 %25, ptr %1, align 8
  %26 = load i32, ptr %2, align 4
  %27 = add nsw i32 %26, 397
  %28 = sext i32 %27 to i64
  %29 = getelementptr inbounds [624 x i64], ptr @mt, i64 0, i64 %28
  %30 = load i64, ptr %29, align 8
  %31 = load i64, ptr %1, align 8
  %32 = lshr i64 %31, 1
  %33 = xor i64 %30, %32
  %34 = load i64, ptr %1, align 8
  %35 = and i64 %34, 1
  %36 = getelementptr inbounds [2 x i64], ptr @genrand_int32.mag01, i64 0, i64 %35
  %37 = load i64, ptr %36, align 8
  %38 = xor i64 %33, %37
  %39 = load i32, ptr %2, align 4
  %40 = sext i32 %39 to i64
  %41 = getelementptr inbounds [624 x i64], ptr @mt, i64 0, i64 %40
  store i64 %38, ptr %41, align 8
  br label %42

42:                                               ; preds = %13
  %43 = load i32, ptr %2, align 4
  %44 = add nsw i32 %43, 1
  store i32 %44, ptr %2, align 4
  br label %10

45:                                               ; preds = %10
  br label %46

46:                                               ; preds = %78, %45
  %47 = load i32, ptr %2, align 4
  %48 = icmp slt i32 %47, 623
  br i1 %48, label %49, label %81

49:                                               ; preds = %46
  %50 = load i32, ptr %2, align 4
  %51 = sext i32 %50 to i64
  %52 = getelementptr inbounds [624 x i64], ptr @mt, i64 0, i64 %51
  %53 = load i64, ptr %52, align 8
  %54 = and i64 %53, 2147483648
  %55 = load i32, ptr %2, align 4
  %56 = add nsw i32 %55, 1
  %57 = sext i32 %56 to i64
  %58 = getelementptr inbounds [624 x i64], ptr @mt, i64 0, i64 %57
  %59 = load i64, ptr %58, align 8
  %60 = and i64 %59, 2147483647
  %61 = or i64 %54, %60
  store i64 %61, ptr %1, align 8
  %62 = load i32, ptr %2, align 4
  %63 = add nsw i32 %62, -227
  %64 = sext i32 %63 to i64
  %65 = getelementptr inbounds [624 x i64], ptr @mt, i64 0, i64 %64
  %66 = load i64, ptr %65, align 8
  %67 = load i64, ptr %1, align 8
  %68 = lshr i64 %67, 1
  %69 = xor i64 %66, %68
  %70 = load i64, ptr %1, align 8
  %71 = and i64 %70, 1
  %72 = getelementptr inbounds [2 x i64], ptr @genrand_int32.mag01, i64 0, i64 %71
  %73 = load i64, ptr %72, align 8
  %74 = xor i64 %69, %73
  %75 = load i32, ptr %2, align 4
  %76 = sext i32 %75 to i64
  %77 = getelementptr inbounds [624 x i64], ptr @mt, i64 0, i64 %76
  store i64 %74, ptr %77, align 8
  br label %78

78:                                               ; preds = %49
  %79 = load i32, ptr %2, align 4
  %80 = add nsw i32 %79, 1
  store i32 %80, ptr %2, align 4
  br label %46

81:                                               ; preds = %46
  %82 = load i64, ptr getelementptr inbounds ([624 x i64], ptr @mt, i64 0, i64 623), align 8
  %83 = and i64 %82, 2147483648
  %84 = load i64, ptr @mt, align 16
  %85 = and i64 %84, 2147483647
  %86 = or i64 %83, %85
  store i64 %86, ptr %1, align 8
  %87 = load i64, ptr getelementptr inbounds ([624 x i64], ptr @mt, i64 0, i64 396), align 16
  %88 = load i64, ptr %1, align 8
  %89 = lshr i64 %88, 1
  %90 = xor i64 %87, %89
  %91 = load i64, ptr %1, align 8
  %92 = and i64 %91, 1
  %93 = getelementptr inbounds [2 x i64], ptr @genrand_int32.mag01, i64 0, i64 %92
  %94 = load i64, ptr %93, align 8
  %95 = xor i64 %90, %94
  store i64 %95, ptr getelementptr inbounds ([624 x i64], ptr @mt, i64 0, i64 623), align 8
  store i32 0, ptr @mti, align 4
  br label %96

96:                                               ; preds = %81, %0
  %97 = load i32, ptr @mti, align 4
  %98 = add nsw i32 %97, 1
  store i32 %98, ptr @mti, align 4
  %99 = sext i32 %97 to i64
  %100 = getelementptr inbounds [624 x i64], ptr @mt, i64 0, i64 %99
  %101 = load i64, ptr %100, align 8
  store i64 %101, ptr %1, align 8
  %102 = load i64, ptr %1, align 8
  %103 = lshr i64 %102, 11
  %104 = load i64, ptr %1, align 8
  %105 = xor i64 %104, %103
  store i64 %105, ptr %1, align 8
  %106 = load i64, ptr %1, align 8
  %107 = shl i64 %106, 7
  %108 = and i64 %107, 2636928640
  %109 = load i64, ptr %1, align 8
  %110 = xor i64 %109, %108
  store i64 %110, ptr %1, align 8
  %111 = load i64, ptr %1, align 8
  %112 = shl i64 %111, 15
  %113 = and i64 %112, 4022730752
  %114 = load i64, ptr %1, align 8
  %115 = xor i64 %114, %113
  store i64 %115, ptr %1, align 8
  %116 = load i64, ptr %1, align 8
  %117 = lshr i64 %116, 18
  %118 = load i64, ptr %1, align 8
  %119 = xor i64 %118, %117
  store i64 %119, ptr %1, align 8
  %120 = load i64, ptr %1, align 8
  ret i64 %120
}