; Function Attrs: nofree norecurse nosync nounwind memory(readwrite, argmem: none, inaccessiblemem: none) uwtable
define i64 @genrand_int32() local_unnamed_addr #2 {
  %1 = load i32, ptr @mti, align 4
  %2 = icmp sgt i32 %1, 623
  br i1 %2, label %4, label %._crit_edge36

._crit_edge36:                                    ; preds = %0
  %.phi.trans.insert = sext i32 %1 to i64
  %.phi.trans.insert37 = getelementptr inbounds [624 x i64], ptr @mt, i64 0, i64 %.phi.trans.insert
  %.pre38 = load i64, ptr %.phi.trans.insert37, align 8
  %3 = add nsw i32 %1, 1
  br label %59

4:                                                ; preds = %0
  %5 = icmp eq i32 %1, 625
  br i1 %5, label %6, label %._crit_edge39

._crit_edge39:                                    ; preds = %4
  %.pre.pre = load i64, ptr @mt, align 16
  br label %init_genrand.exit.preheader

init_genrand.exit.preheader:                      ; preds = %7, %._crit_edge39
  %.ph = phi i64 [ %.pre.pre, %._crit_edge39 ], [ 5489, %7 ]
  br label %init_genrand.exit

6:                                                ; preds = %4
  store i64 5489, ptr @mt, align 16
  br label %7

7:                                                ; preds = %7, %6
  %8 = phi i64 [ 5489, %6 ], [ %14, %7 ]
  %indvars.iv.i = phi i64 [ 1, %6 ], [ %indvars.iv.next.i, %7 ]
  %9 = lshr i64 %8, 30
  %10 = xor i64 %9, %8
  %11 = mul nuw nsw i64 %10, 1812433253
  %12 = add nuw i64 %11, %indvars.iv.i
  %13 = getelementptr inbounds [624 x i64], ptr @mt, i64 0, i64 %indvars.iv.i
  %14 = and i64 %12, 4294967295
  store i64 %14, ptr %13, align 8
  %indvars.iv.next.i = add nuw nsw i64 %indvars.iv.i, 1
  %exitcond.not.i = icmp eq i64 %indvars.iv.next.i, 624
  br i1 %exitcond.not.i, label %init_genrand.exit.preheader, label %7

.lr.ph.preheader:                                 ; preds = %init_genrand.exit
  %.pre35 = load i64, ptr getelementptr inbounds ([624 x i64], ptr @mt, i64 0, i64 227), align 8
  br label %.lr.ph

init_genrand.exit:                                ; preds = %init_genrand.exit.preheader, %init_genrand.exit
  %15 = phi i64 [ %19, %init_genrand.exit ], [ %.ph, %init_genrand.exit.preheader ]
  %indvars.iv = phi i64 [ %indvars.iv.next, %init_genrand.exit ], [ 0, %init_genrand.exit.preheader ]
  %16 = getelementptr inbounds [624 x i64], ptr @mt, i64 0, i64 %indvars.iv
  %17 = and i64 %15, 2147483648
  %indvars.iv.next = add nuw nsw i64 %indvars.iv, 1
  %18 = getelementptr inbounds [624 x i64], ptr @mt, i64 0, i64 %indvars.iv.next
  %19 = load i64, ptr %18, align 8
  %20 = and i64 %19, 2147483646
  %21 = or disjoint i64 %20, %17
  %22 = add nuw nsw i64 %indvars.iv, 397
  %23 = getelementptr inbounds [624 x i64], ptr @mt, i64 0, i64 %22
  %24 = load i64, ptr %23, align 8
  %25 = lshr exact i64 %21, 1
  %26 = and i64 %19, 1
  %27 = getelementptr inbounds [2 x i64], ptr @genrand_int32.mag01, i64 0, i64 %26
  %28 = load i64, ptr %27, align 8
  %29 = xor i64 %28, %24
  %30 = xor i64 %29, %25
  store i64 %30, ptr %16, align 8
  %exitcond.not = icmp eq i64 %indvars.iv.next, 227
  br i1 %exitcond.not, label %.lr.ph.preheader, label %init_genrand.exit

.lr.ph:                                           ; preds = %.lr.ph.preheader, %.lr.ph
  %31 = phi i64 [ %.pre35, %.lr.ph.preheader ], [ %35, %.lr.ph ]
  %indvars.iv31 = phi i64 [ 227, %.lr.ph.preheader ], [ %indvars.iv.next32, %.lr.ph ]
  %32 = getelementptr inbounds [624 x i64], ptr @mt, i64 0, i64 %indvars.iv31
  %33 = and i64 %31, 2147483648
  %indvars.iv.next32 = add nuw nsw i64 %indvars.iv31, 1
  %34 = getelementptr inbounds [624 x i64], ptr @mt, i64 0, i64 %indvars.iv.next32
  %35 = load i64, ptr %34, align 8
  %36 = and i64 %35, 2147483646
  %37 = or disjoint i64 %36, %33
  %38 = add nsw i64 %indvars.iv31, -227
  %39 = getelementptr inbounds [624 x i64], ptr @mt, i64 0, i64 %38
  %40 = load i64, ptr %39, align 8
  %41 = lshr exact i64 %37, 1
  %42 = and i64 %35, 1
  %43 = getelementptr inbounds [2 x i64], ptr @genrand_int32.mag01, i64 0, i64 %42
  %44 = load i64, ptr %43, align 8
  %45 = xor i64 %44, %40
  %46 = xor i64 %45, %41
  store i64 %46, ptr %32, align 8
  %exitcond34.not = icmp eq i64 %indvars.iv.next32, 623
  br i1 %exitcond34.not, label %._crit_edge, label %.lr.ph

._crit_edge:                                      ; preds = %.lr.ph
  %47 = load i64, ptr getelementptr inbounds ([624 x i64], ptr @mt, i64 0, i64 623), align 8
  %48 = and i64 %47, 2147483648
  %49 = load i64, ptr @mt, align 16
  %50 = and i64 %49, 2147483646
  %51 = or disjoint i64 %50, %48
  %52 = load i64, ptr getelementptr inbounds ([624 x i64], ptr @mt, i64 0, i64 396), align 16
  %53 = lshr exact i64 %51, 1
  %54 = and i64 %49, 1
  %55 = getelementptr inbounds [2 x i64], ptr @genrand_int32.mag01, i64 0, i64 %54
  %56 = load i64, ptr %55, align 8
  %57 = xor i64 %56, %52
  %58 = xor i64 %57, %53
  store i64 %58, ptr getelementptr inbounds ([624 x i64], ptr @mt, i64 0, i64 623), align 8
  br label %59

59:                                               ; preds = %._crit_edge36, %._crit_edge
  %60 = phi i64 [ %49, %._crit_edge ], [ %.pre38, %._crit_edge36 ]
  %61 = phi i32 [ 1, %._crit_edge ], [ %3, %._crit_edge36 ]
  store i32 %61, ptr @mti, align 4
  %62 = lshr i64 %60, 11
  %63 = xor i64 %62, %60
  %64 = shl i64 %63, 7
  %65 = and i64 %64, 2636928640
  %66 = xor i64 %65, %63
  %67 = shl i64 %66, 15
  %68 = and i64 %67, 4022730752
  %69 = xor i64 %68, %66
  %70 = lshr i64 %69, 18
  %71 = xor i64 %70, %69
  ret i64 %71
}